target datalayout = "e-m:e-p270:32:32-p271:32:32-p272:64:64-i64:64-i128:128-f80:128-n8:16:32:64-S128"
target triple = "x86_64-pc-linux-gnu"

%struct.timespec = type { i64, i64 }

@.str.19 = private unnamed_addr constant [5 x i8] c"%s =\00", align 1
@.str.20 = private unnamed_addr constant [5 x i8] c"Time\00", align 1
@.str.21 = private unnamed_addr constant [11 x i8] c"%9.2f sec\0A\00", align 1

; Function Attrs: inlinehint nounwind uwtable
define internal i64 @Abc_Clock() #4 {
  %1 = alloca i64, align 8
  %2 = alloca %struct.timespec, align 8
  %3 = alloca i32, align 4
  %4 = alloca i64, align 8
  call void @llvm.lifetime.start.p0(i64 16, ptr %2) #12
  %5 = call i32 @clock_gettime(i32 noundef 1, ptr noundef %2) #12
  %6 = icmp slt i32 %5, 0
  br i1 %6, label %7, label %8

7:                                                ; preds = %0
  store i64 -1, ptr %1, align 8
  store i32 1, ptr %3, align 4
  br label %19

8:                                                ; preds = %0
  call void @llvm.lifetime.start.p0(i64 8, ptr %4) #12
  %9 = getelementptr inbounds nuw %struct.timespec, ptr %2, i32 0, i32 0
  %10 = load i64, ptr %9, align 8, !tbaa !187
  %11 = mul nsw i64 %10, 1000000
  store i64 %11, ptr %4, align 8, !tbaa !100
  %12 = getelementptr inbounds nuw %struct.timespec, ptr %2, i32 0, i32 1
  %13 = load i64, ptr %12, align 8, !tbaa !189
  %14 = mul nsw i64 %13, 1000000
  %15 = sdiv i64 %14, 1000000000
  %16 = load i64, ptr %4, align 8, !tbaa !100
  %17 = add nsw i64 %16, %15
  store i64 %17, ptr %4, align 8, !tbaa !100
  %18 = load i64, ptr %4, align 8, !tbaa !100
  store i64 %18, ptr %1, align 8
  store i32 1, ptr %3, align 4
  call void @llvm.lifetime.end.p0(i64 8, ptr %4) #12
  br label %19

19:                                               ; preds = %8, %7
  call void @llvm.lifetime.end.p0(i64 16, ptr %2) #12
  %20 = load i64, ptr %1, align 8
  ret i64 %20
}

; Function Attrs: nounwind uwtable
define void @Gia_ManTestDistance(ptr noundef %0) #0 {
  %2 = alloca ptr, align 8
  %3 = alloca ptr, align 8
  %4 = alloca i64, align 8
  store ptr %0, ptr %2, align 8, !tbaa !13
  call void @llvm.lifetime.start.p0(i64 8, ptr %3) #12
  call void @llvm.lifetime.start.p0(i64 8, ptr %4) #12
  %5 = call i64 @Abc_Clock()
  store i64 %5, ptr %4, align 8, !tbaa !100
  %6 = load ptr, ptr %2, align 8, !tbaa !13
  %7 = call ptr @Emb_ManStart(ptr noundef %6)
  store ptr %7, ptr %3, align 8, !tbaa !15
  %8 = load ptr, ptr %3, align 8, !tbaa !15
  call void @Emb_ManPrintStats(ptr noundef %8)
  call void (i32, ptr, ...) @Abc_Print(i32 noundef 1, ptr noundef @.str.19, ptr noundef @.str.20)
  %9 = call i64 @Abc_Clock()
  %10 = load i64, ptr %4, align 8, !tbaa !100
  %11 = sub nsw i64 %9, %10
  %12 = sitofp i64 %11 to double
  %13 = fmul double 1.000000e+00, %12
  %14 = fdiv double %13, 1.000000e+06
  call void (i32, ptr, ...) @Abc_Print(i32 noundef 1, ptr noundef @.str.21, double noundef %14)
  %15 = load ptr, ptr %3, align 8, !tbaa !15
  call void @Gia_ManTestDistanceInternal(ptr noundef %15)
  %16 = load ptr, ptr %3, align 8, !tbaa !15
  call void @Emb_ManStop(ptr noundef %16)
  call void @llvm.lifetime.end.p0(i64 8, ptr %4) #12
  call void @llvm.lifetime.end.p0(i64 8, ptr %3) #12
  ret void
}