; Function Attrs: nounwind uwtable
define void @Gia_ManTestDistance(ptr noundef %0) local_unnamed_addr #1 {
  %2 = alloca %struct.timespec, align 8
  %3 = alloca %struct.timespec, align 8
  call void @llvm.lifetime.start.p0(i64 16, ptr nonnull %3) #27
  %4 = call i32 @clock_gettime(i32 noundef 1, ptr noundef nonnull %3) #27
  %5 = icmp slt i32 %4, 0
  br i1 %5, label %Abc_Clock.exit, label %6

6:                                                ; preds = %1
  %7 = load i64, ptr %3, align 8, !tbaa !92
  %.neg6 = mul i64 %7, -1000000
  %8 = getelementptr inbounds nuw i8, ptr %3, i64 8
  %9 = load i64, ptr %8, align 8, !tbaa !94
  %.neg = sdiv i64 %9, -1000
  %.neg7 = add i64 %.neg, %.neg6
  br label %Abc_Clock.exit

Abc_Clock.exit:                                   ; preds = %1, %6
  %.0.i.neg = phi i64 [ %.neg7, %6 ], [ 1, %1 ]
  call void @llvm.lifetime.end.p0(i64 16, ptr nonnull %3) #27
  %10 = call ptr @Emb_ManStart(ptr noundef %0)
  call void @Emb_ManPrintStats(ptr noundef %10)
  call void (i32, ptr, ...) @Abc_Print(i32 poison, ptr noundef nonnull @.str.19, ptr noundef nonnull @.str.20)
  call void @llvm.lifetime.start.p0(i64 16, ptr nonnull %2) #27
  %11 = call i32 @clock_gettime(i32 noundef 1, ptr noundef nonnull %2) #27
  %12 = icmp slt i32 %11, 0
  br i1 %12, label %Abc_Clock.exit5, label %13

13:                                               ; preds = %Abc_Clock.exit
  %14 = load i64, ptr %2, align 8, !tbaa !92
  %15 = mul nsw i64 %14, 1000000
  %16 = getelementptr inbounds nuw i8, ptr %2, i64 8
  %17 = load i64, ptr %16, align 8, !tbaa !94
  %18 = sdiv i64 %17, 1000
  %19 = add nsw i64 %18, %15
  br label %Abc_Clock.exit5

Abc_Clock.exit5:                                  ; preds = %Abc_Clock.exit, %13
  %.0.i4 = phi i64 [ %19, %13 ], [ -1, %Abc_Clock.exit ]
  call void @llvm.lifetime.end.p0(i64 16, ptr nonnull %2) #27
  %20 = add i64 %.0.i4, %.0.i.neg
  %21 = sitofp i64 %20 to double
  %22 = fdiv double %21, 1.000000e+06
  call void (i32, ptr, ...) @Abc_Print(i32 poison, ptr noundef nonnull @.str.21, double noundef %22)
  call void @Gia_ManTestDistanceInternal(ptr noundef %10)
  call void @Emb_ManStop(ptr noundef %10)
  ret void
}